; Function Attrs: mustprogress uwtable
define dso_local noundef ptr @_ZN20b3ConvexHullInternal11newEdgePairEPNS_6VertexES1_(ptr noundef nonnull align 16 captures(none) dereferenceable(192) %0, ptr noundef %1, ptr noundef %2) local_unnamed_addr #4 align 2 {
  %4 = getelementptr inbounds nuw i8, ptr %0, i64 64
  %5 = getelementptr inbounds nuw i8, ptr %0, i64 80
  %6 = load ptr, ptr %5, align 16, !tbaa !23
  %.not.i = icmp eq ptr %6, null
  br i1 %.not.i, label %7, label %_ZN20b3ConvexHullInternal4PoolINS_4EdgeEE9newObjectEv.exit

7:                                                ; preds = %3
  %8 = getelementptr inbounds nuw i8, ptr %0, i64 72
  %9 = load ptr, ptr %8, align 8, !tbaa !28
  %.not12.i = icmp eq ptr %9, null
  br i1 %.not12.i, label %13, label %10

10:                                               ; preds = %7
  %11 = getelementptr inbounds nuw i8, ptr %9, i64 16
  %12 = load ptr, ptr %11, align 8, !tbaa !29
  store ptr %12, ptr %8, align 8, !tbaa !28
  %.pre.i = load ptr, ptr %9, align 8, !tbaa !31
  br label %23

13:                                               ; preds = %7
  %14 = tail call noundef ptr @_Z22b3AlignedAllocInternalmi(i64 noundef 24, i32 noundef 16)
  %15 = getelementptr inbounds nuw i8, ptr %0, i64 88
  %16 = load i32, ptr %15, align 8, !tbaa !32
  %17 = getelementptr inbounds nuw i8, ptr %14, i64 8
  store i32 %16, ptr %17, align 8, !tbaa !33
  %18 = getelementptr inbounds nuw i8, ptr %14, i64 16
  store ptr null, ptr %18, align 8, !tbaa !29
  %19 = sext i32 %16 to i64
  %20 = mul nsw i64 %19, 48
  %21 = tail call noundef ptr @_Z22b3AlignedAllocInternalmi(i64 noundef %20, i32 noundef 16)
  store ptr %21, ptr %14, align 8, !tbaa !31
  %22 = load ptr, ptr %4, align 16, !tbaa !34
  store ptr %22, ptr %18, align 8, !tbaa !29
  store ptr %14, ptr %4, align 16, !tbaa !34
  br label %23

23:                                               ; preds = %13, %10
  %24 = phi ptr [ %.pre.i, %10 ], [ %21, %13 ]
  %.0.i = phi ptr [ %9, %10 ], [ %14, %13 ]
  %25 = getelementptr inbounds nuw i8, ptr %.0.i, i64 8
  %26 = load i32, ptr %25, align 8, !tbaa !33
  %27 = icmp sgt i32 %26, 0
  br i1 %27, label %.lr.ph.i.i, label %_ZN20b3ConvexHullInternal4PoolINS_4EdgeEE9newObjectEv.exit

.lr.ph.i.i:                                       ; preds = %23, %.lr.ph.i.i
  %.09.i.i = phi i32 [ %28, %.lr.ph.i.i ], [ 0, %23 ]
  %.068.i.i = phi ptr [ %30, %.lr.ph.i.i ], [ %24, %23 ]
  %28 = add nuw nsw i32 %.09.i.i, 1
  %29 = icmp slt i32 %28, %26
  %30 = getelementptr inbounds nuw i8, ptr %.068.i.i, i64 48
  %31 = select i1 %29, ptr %30, ptr null
  store ptr %31, ptr %.068.i.i, align 8, !tbaa !35
  %exitcond.not.i.i = icmp eq i32 %28, %26
  br i1 %exitcond.not.i.i, label %_ZN20b3ConvexHullInternal4PoolINS_4EdgeEE9newObjectEv.exit, label %.lr.ph.i.i, !llvm.loop !39

_ZN20b3ConvexHullInternal4PoolINS_4EdgeEE9newObjectEv.exit: ; preds = %.lr.ph.i.i, %3, %23
  %.09.i = phi ptr [ %6, %3 ], [ %24, %23 ], [ %24, %.lr.ph.i.i ]
  %32 = load ptr, ptr %.09.i, align 8, !tbaa !35
  store ptr %32, ptr %5, align 16, !tbaa !23
  tail call void @llvm.memset.p0.i64(ptr noundef nonnull align 8 dereferenceable(48) %.09.i, i8 0, i64 48, i1 false)
  %33 = load ptr, ptr %5, align 16, !tbaa !23
  %.not.i14 = icmp eq ptr %33, null
  br i1 %.not.i14, label %34, label %_ZN20b3ConvexHullInternal4PoolINS_4EdgeEE9newObjectEv.exit23

34:                                               ; preds = %_ZN20b3ConvexHullInternal4PoolINS_4EdgeEE9newObjectEv.exit
  %35 = getelementptr inbounds nuw i8, ptr %0, i64 72
  %36 = load ptr, ptr %35, align 8, !tbaa !28
  %.not12.i16 = icmp eq ptr %36, null
  br i1 %.not12.i16, label %40, label %37

37:                                               ; preds = %34
  %38 = getelementptr inbounds nuw i8, ptr %36, i64 16
  %39 = load ptr, ptr %38, align 8, !tbaa !29
  store ptr %39, ptr %35, align 8, !tbaa !28
  %.pre.i17 = load ptr, ptr %36, align 8, !tbaa !31
  br label %50

40:                                               ; preds = %34
  %41 = tail call noundef ptr @_Z22b3AlignedAllocInternalmi(i64 noundef 24, i32 noundef 16)
  %42 = getelementptr inbounds nuw i8, ptr %0, i64 88
  %43 = load i32, ptr %42, align 8, !tbaa !32
  %44 = getelementptr inbounds nuw i8, ptr %41, i64 8
  store i32 %43, ptr %44, align 8, !tbaa !33
  %45 = getelementptr inbounds nuw i8, ptr %41, i64 16
  store ptr null, ptr %45, align 8, !tbaa !29
  %46 = sext i32 %43 to i64
  %47 = mul nsw i64 %46, 48
  %48 = tail call noundef ptr @_Z22b3AlignedAllocInternalmi(i64 noundef %47, i32 noundef 16)
  store ptr %48, ptr %41, align 8, !tbaa !31
  %49 = load ptr, ptr %4, align 16, !tbaa !34
  store ptr %49, ptr %45, align 8, !tbaa !29
  store ptr %41, ptr %4, align 16, !tbaa !34
  br label %50

50:                                               ; preds = %40, %37
  %51 = phi ptr [ %.pre.i17, %37 ], [ %48, %40 ]
  %.0.i18 = phi ptr [ %36, %37 ], [ %41, %40 ]
  %52 = getelementptr inbounds nuw i8, ptr %.0.i18, i64 8
  %53 = load i32, ptr %52, align 8, !tbaa !33
  %54 = icmp sgt i32 %53, 0
  br i1 %54, label %.lr.ph.i.i19, label %_ZN20b3ConvexHullInternal4PoolINS_4EdgeEE9newObjectEv.exit23

.lr.ph.i.i19:                                     ; preds = %50, %.lr.ph.i.i19
  %.09.i.i20 = phi i32 [ %55, %.lr.ph.i.i19 ], [ 0, %50 ]
  %.068.i.i21 = phi ptr [ %57, %.lr.ph.i.i19 ], [ %51, %50 ]
  %55 = add nuw nsw i32 %.09.i.i20, 1
  %56 = icmp slt i32 %55, %53
  %57 = getelementptr inbounds nuw i8, ptr %.068.i.i21, i64 48
  %58 = select i1 %56, ptr %57, ptr null
  store ptr %58, ptr %.068.i.i21, align 8, !tbaa !35
  %exitcond.not.i.i22 = icmp eq i32 %55, %53
  br i1 %exitcond.not.i.i22, label %_ZN20b3ConvexHullInternal4PoolINS_4EdgeEE9newObjectEv.exit23, label %.lr.ph.i.i19, !llvm.loop !39

_ZN20b3ConvexHullInternal4PoolINS_4EdgeEE9newObjectEv.exit23: ; preds = %.lr.ph.i.i19, %_ZN20b3ConvexHullInternal4PoolINS_4EdgeEE9newObjectEv.exit, %50
  %.09.i15 = phi ptr [ %33, %_ZN20b3ConvexHullInternal4PoolINS_4EdgeEE9newObjectEv.exit ], [ %51, %50 ], [ %51, %.lr.ph.i.i19 ]
  %59 = load ptr, ptr %.09.i15, align 8, !tbaa !35
  store ptr %59, ptr %5, align 16, !tbaa !23
  tail call void @llvm.memset.p0.i64(ptr noundef nonnull align 8 dereferenceable(48) %.09.i15, i8 0, i64 48, i1 false)
  %60 = getelementptr inbounds nuw i8, ptr %.09.i, i64 16
  store ptr %.09.i15, ptr %60, align 8, !tbaa !41
  %61 = getelementptr inbounds nuw i8, ptr %.09.i15, i64 16
  store ptr %.09.i, ptr %61, align 8, !tbaa !41
  %62 = getelementptr inbounds nuw i8, ptr %0, i64 160
  %63 = load i32, ptr %62, align 16, !tbaa !42
  %64 = getelementptr inbounds nuw i8, ptr %.09.i, i64 40
  store i32 %63, ptr %64, align 8, !tbaa !52
  %65 = getelementptr inbounds nuw i8, ptr %.09.i15, i64 40
  store i32 %63, ptr %65, align 8, !tbaa !52
  %66 = getelementptr inbounds nuw i8, ptr %.09.i, i64 24
  store ptr %2, ptr %66, align 8, !tbaa !53
  %67 = getelementptr inbounds nuw i8, ptr %.09.i15, i64 24
  store ptr %1, ptr %67, align 8, !tbaa !53
  %68 = getelementptr inbounds nuw i8, ptr %.09.i, i64 32
  store ptr null, ptr %68, align 8, !tbaa !54
  %69 = getelementptr inbounds nuw i8, ptr %.09.i15, i64 32
  store ptr null, ptr %69, align 8, !tbaa !54
  %70 = getelementptr inbounds nuw i8, ptr %0, i64 176
  %71 = load i32, ptr %70, align 16, !tbaa !55
  %72 = add nsw i32 %71, 1
  store i32 %72, ptr %70, align 16, !tbaa !55
  %73 = getelementptr inbounds nuw i8, ptr %0, i64 180
  %74 = load i32, ptr %73, align 4, !tbaa !56
  %.not = icmp slt i32 %71, %74
  br i1 %.not, label %76, label %75

75:                                               ; preds = %_ZN20b3ConvexHullInternal4PoolINS_4EdgeEE9newObjectEv.exit23
  store i32 %72, ptr %73, align 4, !tbaa !56
  br label %76

76:                                               ; preds = %75, %_ZN20b3ConvexHullInternal4PoolINS_4EdgeEE9newObjectEv.exit23
  ret ptr %.09.i
}